Certificate:
    Data:
        Version: 3 (0x2)
        Serial Number: 4 (0x4)
        Signature Algorithm: sha256WithRSAEncryption
        Issuer: C=GB, ST=Derbyshire, O=Mosquitto Project, OU=Testing, CN=Signing CA
        Validity
            Not Before: Aug 20 00:00:00 2012 GMT
            Not After : Aug 21 00:00:00 2012 GMT
        Subject: C=GB, ST=Nottinghamshire, L=Nottingham, O=Server, OU=Production, CN=test client expired
        Subject Public Key Info:
            Public Key Algorithm: rsaEncryption
                RSA Public-Key: (1024 bit)
                Modulus:
                    00:e3:03:9f:6f:4f:8b:c6:57:bd:04:88:10:bc:04:
                    e2:c4:a8:cd:a5:3a:ad:46:1e:e7:46:53:d6:f2:3f:
                    93:92:cb:2c:31:7f:17:77:44:2f:cf:61:50:9f:ff:
                    e9:3d:b7:2a:82:84:7e:be:01:3a:17:e5:7b:78:b1:
                    b5:ab:0f:15:05:3f:85:cf:a7:11:33:c7:8b:9d:a6:
                    8b:8b:3f:6e:61:fb:68:9b:0b:00:fe:9b:2d:a2:6f:
                    0c:ea:d4:79:c7:11:94:e6:0d:e2:b8:3c:4f:08:3e:
                    0a:1d:7d:89:e7:69:2d:06:35:e5:9e:b5:df:16:f8:
                    56:c5:77:f2:e2:62:cc:10:87
                Exponent: 65537 (0x10001)
        X509v3 extensions:
            X509v3 Basic Constraints: 
                CA:FALSE
            Netscape Comment: 
                OpenSSL Generated Certificate
            X509v3 Subject Key Identifier: 
                04:E8:D6:25:43:18:36:C9:BD:DA:3A:EE:34:CC:1A:49:CB:35:07:5F
            X509v3 Authority Key Identifier: 
                keyid:EA:BE:42:EF:98:17:84:D5:FC:28:89:5A:4B:A5:B6:41:4F:7B:BB:28

    Signature Algorithm: sha256WithRSAEncryption
         45:3c:cf:52:b5:ce:52:a8:98:da:ed:f4:cc:81:42:d3:87:6e:
         29:da:ee:0a:62:02:96:78:04:f9:e7:c6:e0:55:fc:50:b6:4e:
         73:52:c9:44:2e:22:21:ec:70:e0:d6:b9:13:f5:1c:c0:86:b5:
         26:d9:75:69:3c:a9:b0:71:13:aa:2a:f9:f1:86:1d:82:66:1a:
         cc:56:4e:3a:7a:d9:20:88:80:e5:42:02:b8:3a:8c:26:8a:57:
         f7:5c:5a:a3:15:4e:74:06:a0:3c:ea:1f:67:53:d1:60:a3:5e:
         c2:75:17:32:b8:35:08:a7:d8:36:3c:13:1f:9c:97:18:b5:69:
         9f:66
-----BEGIN CERTIFICATE-----
MIIC1zCCAkCgAwIBAgIBBDANBgkqhkiG9w0BAQsFADBlMQswCQYDVQQGEwJHQjET
MBEGA1UECAwKRGVyYnlzaGlyZTEaMBgGA1UECgwRTW9zcXVpdHRvIFByb2plY3Qx
EDAOBgNVBAsMB1Rlc3RpbmcxEzARBgNVBAMMClNpZ25pbmcgQ0EwHhcNMTIwODIw
MDAwMDAwWhcNMTIwODIxMDAwMDAwWjCBgDELMAkGA1UEBhMCR0IxGDAWBgNVBAgM
D05vdHRpbmdoYW1zaGlyZTETMBEGA1UEBwwKTm90dGluZ2hhbTEPMA0GA1UECgwG
U2VydmVyMRMwEQYDVQQLDApQcm9kdWN0aW9uMRwwGgYDVQQDDBN0ZXN0IGNsaWVu
dCBleHBpcmVkMIGfMA0GCSqGSIb3DQEBAQUAA4GNADCBiQKBgQDjA59vT4vGV70E
iBC8BOLEqM2lOq1GHudGU9byP5OSyywxfxd3RC/PYVCf/+k9tyqChH6+AToX5Xt4
sbWrDxUFP4XPpxEzx4udpouLP25h+2ibCwD+my2ibwzq1HnHEZTmDeK4PE8IPgod
fYnnaS0GNeWetd8W+FbFd/LiYswQhwIDAQABo3sweTAJBgNVHRMEAjAAMCwGCWCG
SAGG+EIBDQQfFh1PcGVuU1NMIEdlbmVyYXRlZCBDZXJ0aWZpY2F0ZTAdBgNVHQ4E
FgQUBOjWJUMYNsm92jruNMwaScs1B18wHwYDVR0jBBgwFoAU6r5C75gXhNX8KIla
S6W2QU97uygwDQYJKoZIhvcNAQELBQADgYEARTzPUrXOUqiY2u30zIFC04duKdru
CmIClngE+efG4FX8ULZOc1LJRC4iIexw4Na5E/UcwIa1Jtl1aTypsHETqir58YYd
gmYazFZOOnrZIIiA5UICuDqMJopX91xaoxVOdAagPOofZ1PRYKNewnUXMrg1CKfY
NjwTH5yXGLVpn2Y=
-----END CERTIFICATE-----
