Certificate:
    Data:
        Version: 3 (0x2)
        Serial Number: 2 (0x2)
        Signature Algorithm: sha256WithRSAEncryption
        Issuer: C=GB, ST=Derbyshire, O=Mosquitto Project, OU=Testing, CN=Signing CA
        Validity
            Not Before: Aug 20 00:00:00 2012 GMT
            Not After : Aug 21 00:00:00 2012 GMT
        Subject: C=GB, ST=Nottinghamshire, L=Nottingham, O=Server, OU=Production-expired, CN=localhost
        Subject Public Key Info:
            Public Key Algorithm: rsaEncryption
                RSA Public-Key: (1024 bit)
                Modulus:
                    00:9e:17:15:22:13:1e:22:b2:b5:e2:8c:d3:ac:f5:
                    4c:bc:ef:55:92:46:8e:96:6d:b7:c1:af:50:4d:5f:
                    88:49:92:74:b1:91:b1:70:50:74:f3:d4:6f:83:e1:
                    21:58:44:7d:d4:c0:9f:51:fe:95:55:14:fe:30:e8:
                    50:cf:18:a0:99:94:99:1e:ae:87:e2:63:10:7a:1b:
                    17:da:f1:72:2b:63:59:bf:e4:9c:79:bb:63:c7:40:
                    31:47:7b:8a:b7:82:44:69:d6:a9:24:38:5e:fb:e2:
                    c0:0b:d0:42:70:dc:4e:a0:7b:44:23:45:8b:92:db:
                    3c:7b:7f:ea:60:8d:5a:a9:0b
                Exponent: 65537 (0x10001)
        X509v3 extensions:
            X509v3 Basic Constraints: 
                CA:FALSE
            Netscape Comment: 
                OpenSSL Generated Certificate
            X509v3 Subject Key Identifier: 
                6C:37:48:ED:A0:0E:E7:67:BF:20:1D:76:48:75:82:1D:16:BA:ED:54
            X509v3 Authority Key Identifier: 
                keyid:EA:BE:42:EF:98:17:84:D5:FC:28:89:5A:4B:A5:B6:41:4F:7B:BB:28

    Signature Algorithm: sha256WithRSAEncryption
         02:bb:c3:b6:e5:50:25:ef:32:c7:54:54:0c:3a:fd:2b:21:c8:
         e0:1b:df:29:c8:0e:b1:ce:44:6d:9f:51:42:f2:d0:8a:42:a0:
         96:10:45:b9:d5:e8:7e:5d:5c:f0:ef:3c:8d:89:58:11:16:84:
         71:da:1e:98:84:9b:b2:d1:a3:a5:3f:fd:d9:8b:df:90:ab:22:
         7e:12:16:ef:1f:02:fd:86:07:ad:85:83:e6:59:d7:ff:ee:b1:
         44:b1:2c:29:8d:90:c0:73:53:e2:13:20:21:2b:8e:89:e2:4b:
         20:16:13:ea:20:ae:d8:fc:6e:61:31:11:33:2f:dc:40:a0:6b:
         a1:a1
-----BEGIN CERTIFICATE-----
MIIC1DCCAj2gAwIBAgIBAjANBgkqhkiG9w0BAQsFADBlMQswCQYDVQQGEwJHQjET
MBEGA1UECAwKRGVyYnlzaGlyZTEaMBgGA1UECgwRTW9zcXVpdHRvIFByb2plY3Qx
EDAOBgNVBAsMB1Rlc3RpbmcxEzARBgNVBAMMClNpZ25pbmcgQ0EwHhcNMTIwODIw
MDAwMDAwWhcNMTIwODIxMDAwMDAwWjB+MQswCQYDVQQGEwJHQjEYMBYGA1UECAwP
Tm90dGluZ2hhbXNoaXJlMRMwEQYDVQQHDApOb3R0aW5naGFtMQ8wDQYDVQQKDAZT
ZXJ2ZXIxGzAZBgNVBAsMElByb2R1Y3Rpb24tZXhwaXJlZDESMBAGA1UEAwwJbG9j
YWxob3N0MIGfMA0GCSqGSIb3DQEBAQUAA4GNADCBiQKBgQCeFxUiEx4isrXijNOs
9Uy871WSRo6WbbfBr1BNX4hJknSxkbFwUHTz1G+D4SFYRH3UwJ9R/pVVFP4w6FDP
GKCZlJkerofiYxB6Gxfa8XIrY1m/5Jx5u2PHQDFHe4q3gkRp1qkkOF774sAL0EJw
3E6ge0QjRYuS2zx7f+pgjVqpCwIDAQABo3sweTAJBgNVHRMEAjAAMCwGCWCGSAGG
+EIBDQQfFh1PcGVuU1NMIEdlbmVyYXRlZCBDZXJ0aWZpY2F0ZTAdBgNVHQ4EFgQU
bDdI7aAO52e/IB12SHWCHRa67VQwHwYDVR0jBBgwFoAU6r5C75gXhNX8KIlaS6W2
QU97uygwDQYJKoZIhvcNAQELBQADgYEAArvDtuVQJe8yx1RUDDr9KyHI4BvfKcgO
sc5EbZ9RQvLQikKglhBFudXofl1c8O88jYlYERaEcdoemISbstGjpT/92YvfkKsi
fhIW7x8C/YYHrYWD5lnX/+6xRLEsKY2QwHNT4hMgISuOieJLIBYT6iCu2PxuYTER
My/cQKBroaE=
-----END CERTIFICATE-----
